(lp0
(lp1
(dp2
Vy
p3
V119
p4
sVx
p5
V74
p6
sVm
p7
I0
sVw
p8
V150
p9
sVh
p10
V195.65217391304347
p11
sa(dp12
Vy
p13
V108
p14
sVx
p15
V307
p16
sVm
p17
I0
sVw
p18
V150
p19
sVh
p20
V195.65217391304347
p21
sa(dp22
Vy
p23
V121
p24
sVx
p25
V656
p26
sVm
p27
I0
sVw
p28
V150
p29
sVh
p30
V195.65217391304347
p31
sa(dp32
Vy
p33
V174
p34
sVx
p35
V884
p36
sVm
p37
I1
sVw
p38
V150
p39
sVh
p40
V195.65217391304347
p41
saa(lp42
(dp43
Vy
p44
V119
p45
sVx
p46
V74
p47
sVm
p48
I0
sVw
p49
V150
p50
sVh
p51
V195.65217391304347
p52
sa(dp53
Vy
p54
V125
p55
sVx
p56
V295
p57
sVm
p58
I0
sVw
p59
V150
p60
sVh
p61
V195.65217391304347
p62
sa(dp63
Vy
p64
V123
p65
sVx
p66
V639
p67
sVm
p68
I0
sVw
p69
V150
p70
sVh
p71
V195.65217391304347
p72
sa(dp73
Vy
p74
V171
p75
sVx
p76
V863
p77
sVm
p78
I1
sVw
p79
V150
p80
sVh
p81
V195.65217391304347
p82
saa(lp83
(dp84
Vy
p85
V121
p86
sVx
p87
V53
p88
sVm
p89
I0
sVw
p90
V150
p91
sVh
p92
V195.65217391304347
p93
sa(dp94
Vy
p95
V118
p96
sVx
p97
V278
p98
sVm
p99
I0
sVw
p100
V150
p101
sVh
p102
V195.65217391304347
p103
sa(dp104
Vy
p105
V132
p106
sVx
p107
V625
p108
sVm
p109
I0
sVw
p110
V150
p111
sVh
p112
V195.65217391304347
p113
sa(dp114
Vy
p115
V179
p116
sVx
p117
V850
p118
sVm
p119
I1
sVw
p120
V150
p121
sVh
p122
V195.65217391304347
p123
saa(lp124
(dp125
Vy
p126
V127
p127
sVx
p128
V40
p129
sVm
p130
I0
sVw
p131
V150
p132
sVh
p133
V195.65217391304347
p134
sa(dp135
Vy
p136
V125
p137
sVx
p138
V271
p139
sVm
p140
I0
sVw
p141
V150
p142
sVh
p143
V195.65217391304347
p144
sa(dp145
Vy
p146
V133
p147
sVx
p148
V615
p149
sVm
p150
I0
sVw
p151
V150
p152
sVh
p153
V195.65217391304347
p154
sa(dp155
Vy
p156
V181
p157
sVx
p158
V834
p159
sVm
p160
I1
sVw
p161
V150
p162
sVh
p163
V195.65217391304347
p164
saa.