(lp0
(lp1
(dp2
Vy
p3
V162
p4
sVx
p5
V109
p6
sVs
p7
V150
p8
sVm
p9
I0
sVt
p10
Vmatrix(1 0 0 1 -19 -30)
p11
sa(dp12
Vy
p13
V188
p14
sVx
p15
V381
p16
sVs
p17
V150
p18
sVm
p19
I0
sVt
p20
Vmatrix(1 0 0 1 -69 -80)
p21
sa(dp22
Vy
p23
V152
p24
sVx
p25
V577
p26
sVs
p27
V150
p28
sVm
p29
I0
sVt
p30
Vmatrix(1 0 0 1 73 -28)
p31
sa(dp32
Vy
p33
V289
p34
sVx
p35
V993
p36
sVs
p37
V150
p38
sVm
p39
I1
sVt
p40
Vmatrix(1 0 0 1 -111 -111)
p41
sa(dp42
Vy
p43
V174
p44
sVx
p45
V558
p46
sVs
p47
V130
p48
sVm
p49
I0
sVt
p50
Vmatrix(1 0 0 1 -66 -59)
p51
sa(dp52
Vy
p53
V227
p54
sVx
p55
V1151
p56
sVs
p57
V100
p58
sVm
p59
I0
sVt
p60
Vmatrix(1 0 0 1 -21 -44)
p61
saa(lp62
(dp63
Vy
p64
V162
p65
sVx
p66
V109
p67
sVs
p68
V150
p69
sVm
p70
I0
sVt
p71
Vmatrix(1 0 0 1 -39 -30)
p72
sa(dp73
Vy
p74
V188
p75
sVx
p76
V381
p77
sVs
p78
V150
p79
sVm
p80
I0
sVt
p81
Vmatrix(1 0 0 1 -92 -74)
p82
sa(dp83
Vy
p84
V152
p85
sVx
p86
V577
p87
sVs
p88
V150
p89
sVm
p90
I0
sVt
p91
Vmatrix(1 0 0 1 55 -31)
p92
sa(dp93
Vy
p94
V289
p95
sVx
p96
V993
p97
sVs
p98
V150
p99
sVm
p100
I1
sVt
p101
Vmatrix(1 0 0 1 -133 -110)
p102
sa(dp103
Vy
p104
V170
p105
sVx
p106
V493
p107
sVs
p108
V130
p109
sVm
p110
I0
sVt
p111
Vmatrix(1 0 0 1 -24 -57)
p112
sa(dp113
Vy
p114
V237
p115
sVx
p116
V1161
p117
sVs
p118
V100
p119
sVm
p120
I0
sVt
p121
Vmatrix(1 0 0 1 -53 -51)
p122
saa(lp123
(dp124
Vy
p125
V162
p126
sVx
p127
V109
p128
sVs
p129
V150
p130
sVm
p131
I0
sVt
p132
Vmatrix(1 0 0 1 -52 -34)
p133
sa(dp134
Vy
p135
V188
p136
sVx
p137
V381
p138
sVs
p139
V150
p140
sVm
p141
I0
sVt
p142
Vmatrix(1 0 0 1 -107 -73)
p143
sa(dp144
Vy
p145
V152
p146
sVx
p147
V577
p148
sVs
p149
V150
p150
sVm
p151
I0
sVt
p152
Vmatrix(1 0 0 1 43 -31)
p153
sa(dp154
Vy
p155
V289
p156
sVx
p157
V993
p158
sVs
p159
V150
p160
sVm
p161
I1
sVt
p162
Vmatrix(1 0 0 1 -143 -101)
p163
sa(dp164
Vy
p165
V162
p166
sVx
p167
V503
p168
sVs
p169
V130
p170
sVm
p171
I0
sVt
p172
Vmatrix(1 0 0 1 -42 -50)
p173
sa(dp174
Vy
p175
V222
p176
sVx
p177
V1128
p178
sVs
p179
V100
p180
sVm
p181
I0
sVt
p182
Vmatrix(1 0 0 1 -33 -36)
p183
saa(lp184
(dp185
Vy
p186
V162
p187
sVx
p188
V109
p189
sVs
p190
V150
p191
sVm
p192
I0
sVt
p193
Vmatrix(1 0 0 1 -65 -34)
p194
sa(dp195
Vy
p196
V188
p197
sVx
p198
V381
p199
sVs
p200
V150
p201
sVm
p202
I0
sVt
p203
Vmatrix(1 0 0 1 -123 -63)
p204
sa(dp205
Vy
p206
V152
p207
sVx
p208
V577
p209
sVs
p210
V150
p211
sVm
p212
I0
sVt
p213
Vmatrix(1 0 0 1 40 -22)
p214
sa(dp215
Vy
p216
V289
p217
sVx
p218
V993
p219
sVs
p220
V150
p221
sVm
p222
I1
sVt
p223
Vmatrix(1 0 0 1 -153 -106)
p224
sa(dp225
Vy
p226
V156
p227
sVx
p228
V486
p229
sVs
p230
V130
p231
sVm
p232
I0
sVt
p233
Vmatrix(1 0 0 1 -34 -39)
p234
sa(dp235
Vy
p236
V203
p237
sVx
p238
V1105
p239
sVs
p240
V100
p241
sVm
p242
I0
sVt
p243
Vmatrix(1 0 0 1 -21 -22)
p244
saa.